target datalayout = "e-m:e-p270:32:32-p271:32:32-p272:64:64-i64:64-i128:128-f80:128-n8:16:32:64-S128"
target triple = "x86_64-pc-linux-gnu"

%struct.uv__queue = type { ptr, ptr }
%union.pthread_mutex_t = type { %struct.__pthread_mutex_s }
%struct.__pthread_mutex_s = type { i32, i32, i32, i32, i32, i16, i16, %struct.__pthread_internal_list }
%struct.__pthread_internal_list = type { ptr, ptr }
%union.pthread_cond_t = type { %struct.__pthread_cond_s }
%struct.__pthread_cond_s = type { %union.__atomic_wide_counter, %union.__atomic_wide_counter, [2 x i32], [2 x i32], i32, i32, [2 x i32] }
%union.__atomic_wide_counter = type { i64 }

@nthreads = internal global i32 0, align 4
@exit_message = internal global %struct.uv__queue zeroinitializer, align 8
@threads = internal global ptr null, align 8
@default_threads = internal global [4 x i64] zeroinitializer, align 16
@mutex = internal global %union.pthread_mutex_t zeroinitializer, align 8
@cond = internal global %union.pthread_cond_t zeroinitializer, align 8
@slow_io_pending_wq = internal global %struct.uv__queue zeroinitializer, align 8
@run_slow_work_message = internal global %struct.uv__queue zeroinitializer, align 8
@wq = internal global %struct.uv__queue zeroinitializer, align 8
@idle_threads = internal global i32 0, align 4

; Function Attrs: inlinehint nounwind uwtable
define internal i32 @uv__queue_empty(ptr noundef %0) #4 {
  %2 = alloca ptr, align 8
  store ptr %0, ptr %2, align 8
  %3 = load ptr, ptr %2, align 8
  %4 = load ptr, ptr %2, align 8
  %5 = getelementptr inbounds nuw %struct.uv__queue, ptr %4, i32 0, i32 0
  %6 = load ptr, ptr %5, align 8
  %7 = icmp eq ptr %3, %6
  %8 = zext i1 %7 to i32
  ret i32 %8
}

; Function Attrs: inlinehint nounwind uwtable
define internal void @uv__queue_insert_tail(ptr noundef %0, ptr noundef %1) #4 {
  %3 = alloca ptr, align 8
  %4 = alloca ptr, align 8
  store ptr %0, ptr %3, align 8
  store ptr %1, ptr %4, align 8
  %5 = load ptr, ptr %3, align 8
  %6 = load ptr, ptr %4, align 8
  %7 = getelementptr inbounds nuw %struct.uv__queue, ptr %6, i32 0, i32 0
  store ptr %5, ptr %7, align 8
  %8 = load ptr, ptr %3, align 8
  %9 = getelementptr inbounds nuw %struct.uv__queue, ptr %8, i32 0, i32 1
  %10 = load ptr, ptr %9, align 8
  %11 = load ptr, ptr %4, align 8
  %12 = getelementptr inbounds nuw %struct.uv__queue, ptr %11, i32 0, i32 1
  store ptr %10, ptr %12, align 8
  %13 = load ptr, ptr %4, align 8
  %14 = load ptr, ptr %4, align 8
  %15 = getelementptr inbounds nuw %struct.uv__queue, ptr %14, i32 0, i32 1
  %16 = load ptr, ptr %15, align 8
  %17 = getelementptr inbounds nuw %struct.uv__queue, ptr %16, i32 0, i32 0
  store ptr %13, ptr %17, align 8
  %18 = load ptr, ptr %4, align 8
  %19 = load ptr, ptr %3, align 8
  %20 = getelementptr inbounds nuw %struct.uv__queue, ptr %19, i32 0, i32 1
  store ptr %18, ptr %20, align 8
  ret void
}

; Function Attrs: nounwind uwtable
define internal void @post(ptr noundef %0, i32 noundef %1) #0 {
  %3 = alloca ptr, align 8
  %4 = alloca i32, align 4
  store ptr %0, ptr %3, align 8
  store i32 %1, ptr %4, align 4
  call void @uv_mutex_lock(ptr noundef @mutex)
  %5 = load i32, ptr %4, align 4
  %6 = icmp eq i32 %5, 2
  br i1 %6, label %7, label %13

7:                                                ; preds = %2
  %8 = load ptr, ptr %3, align 8
  call void @uv__queue_insert_tail(ptr noundef @slow_io_pending_wq, ptr noundef %8)
  %9 = call i32 @uv__queue_empty(ptr noundef @run_slow_work_message)
  %10 = icmp ne i32 %9, 0
  br i1 %10, label %12, label %11

11:                                               ; preds = %7
  call void @uv_mutex_unlock(ptr noundef @mutex)
  br label %19

12:                                               ; preds = %7
  store ptr @run_slow_work_message, ptr %3, align 8
  br label %13

13:                                               ; preds = %12, %2
  %14 = load ptr, ptr %3, align 8
  call void @uv__queue_insert_tail(ptr noundef @wq, ptr noundef %14)
  %15 = load i32, ptr @idle_threads, align 4
  %16 = icmp ugt i32 %15, 0
  br i1 %16, label %17, label %18

17:                                               ; preds = %13
  call void @uv_cond_signal(ptr noundef @cond)
  br label %18

18:                                               ; preds = %17, %13
  call void @uv_mutex_unlock(ptr noundef @mutex)
  br label %19

19:                                               ; preds = %18, %11
  ret void
}

; Function Attrs: nounwind uwtable
define hidden void @uv__threadpool_cleanup() #0 {
  %1 = alloca i32, align 4
  %2 = alloca i32, align 4
  call void @llvm.lifetime.start.p0(i64 4, ptr %1) #8
  %3 = load i32, ptr @nthreads, align 4
  %4 = icmp eq i32 %3, 0
  br i1 %4, label %5, label %6

5:                                                ; preds = %0
  store i32 1, ptr %2, align 4
  br label %29

6:                                                ; preds = %0
  call void @post(ptr noundef @exit_message, i32 noundef 0)
  store i32 0, ptr %1, align 4
  br label %7

7:                                                ; preds = %20, %6
  %8 = load i32, ptr %1, align 4
  %9 = load i32, ptr @nthreads, align 4
  %10 = icmp ult i32 %8, %9
  br i1 %10, label %11, label %23

11:                                               ; preds = %7
  %12 = load ptr, ptr @threads, align 8
  %13 = load i32, ptr %1, align 4
  %14 = zext i32 %13 to i64
  %15 = getelementptr inbounds nuw i64, ptr %12, i64 %14
  %16 = call i32 @uv_thread_join(ptr noundef %15)
  %17 = icmp ne i32 %16, 0
  br i1 %17, label %18, label %19

18:                                               ; preds = %11
  call void @abort() #9
  unreachable

19:                                               ; preds = %11
  br label %20

20:                                               ; preds = %19
  %21 = load i32, ptr %1, align 4
  %22 = add i32 %21, 1
  store i32 %22, ptr %1, align 4
  br label %7

23:                                               ; preds = %7
  %24 = load ptr, ptr @threads, align 8
  %25 = icmp ne ptr %24, @default_threads
  br i1 %25, label %26, label %28

26:                                               ; preds = %23
  %27 = load ptr, ptr @threads, align 8
  call void @uv__free(ptr noundef %27)
  br label %28

28:                                               ; preds = %26, %23
  call void @uv_mutex_destroy(ptr noundef @mutex)
  call void @uv_cond_destroy(ptr noundef @cond)
  store ptr null, ptr @threads, align 8
  store i32 0, ptr @nthreads, align 4
  store i32 0, ptr %2, align 4
  br label %29

29:                                               ; preds = %28, %5
  call void @llvm.lifetime.end.p0(i64 4, ptr %1) #8
  %30 = load i32, ptr %2, align 4
  switch i32 %30, label %32 [
    i32 0, label %31
    i32 1, label %31
  ]

31:                                               ; preds = %29, %29
  ret void

32:                                               ; preds = %29
  unreachable
}