; Function Attrs: nounwind uwtable
define hidden void @uv__threadpool_cleanup() local_unnamed_addr #0 {
  %1 = load i32, ptr @nthreads, align 4
  %2 = icmp eq i32 %1, 0
  br i1 %2, label %19, label %3

3:                                                ; preds = %0
  tail call void @uv_mutex_lock(ptr noundef nonnull @mutex) #9
  store ptr @wq, ptr @exit_message, align 8
  %4 = load ptr, ptr getelementptr inbounds nuw (i8, ptr @wq, i64 8), align 8
  store ptr %4, ptr getelementptr inbounds nuw (i8, ptr @exit_message, i64 8), align 8
  store ptr @exit_message, ptr %4, align 8
  store ptr @exit_message, ptr getelementptr inbounds nuw (i8, ptr @wq, i64 8), align 8
  %5 = load i32, ptr @idle_threads, align 4
  %.not2.i = icmp eq i32 %5, 0
  br i1 %.not2.i, label %post.exit, label %6

6:                                                ; preds = %3
  tail call void @uv_cond_signal(ptr noundef nonnull @cond) #9
  br label %post.exit

post.exit:                                        ; preds = %3, %6
  tail call void @uv_mutex_unlock(ptr noundef nonnull @mutex) #9
  %7 = load i32, ptr @nthreads, align 4
  %.not6 = icmp eq i32 %7, 0
  br i1 %.not6, label %._crit_edge, label %.lr.ph

8:                                                ; preds = %.lr.ph
  %indvars.iv.next = add nuw nsw i64 %indvars.iv, 1
  %9 = load i32, ptr @nthreads, align 4
  %10 = zext i32 %9 to i64
  %11 = icmp samesign ult i64 %indvars.iv.next, %10
  br i1 %11, label %.lr.ph, label %._crit_edge

.lr.ph:                                           ; preds = %post.exit, %8
  %indvars.iv = phi i64 [ %indvars.iv.next, %8 ], [ 0, %post.exit ]
  %12 = load ptr, ptr @threads, align 8
  %13 = getelementptr inbounds nuw i64, ptr %12, i64 %indvars.iv
  %14 = tail call i32 @uv_thread_join(ptr noundef %13) #9
  %.not4 = icmp eq i32 %14, 0
  br i1 %.not4, label %8, label %15

15:                                               ; preds = %.lr.ph
  tail call void @abort() #10
  unreachable

._crit_edge:                                      ; preds = %8, %post.exit
  %16 = load ptr, ptr @threads, align 8
  %.not = icmp eq ptr %16, @default_threads
  br i1 %.not, label %18, label %17

17:                                               ; preds = %._crit_edge
  tail call void @uv__free(ptr noundef %16) #9
  br label %18

18:                                               ; preds = %17, %._crit_edge
  tail call void @uv_mutex_destroy(ptr noundef nonnull @mutex) #9
  tail call void @uv_cond_destroy(ptr noundef nonnull @cond) #9
  store ptr null, ptr @threads, align 8
  store i32 0, ptr @nthreads, align 4
  br label %19

19:                                               ; preds = %0, %18
  ret void
}